#include <math.h>
#include <stdio.h>
#include <stdlib.h>
#include <string.h>

int main()
{
    int n;
    scanf("%d",&n);
    for(int z=0;z<n;z++)
    {
            int m;
            scanf("%d",&m);
            if(m==1||m==2)
            {printf("1\n");break;}
            int a=1,b=1,d,c;
            for(int i=2;i<m;i++)
            {
                    c=a+b;
                    d=b;
                    b=c;
                    a=d;
            }
            printf("%d\n",b);
    }
}